target datalayout = "e-m:e-p270:32:32-p271:32:32-p272:64:64-i64:64-i128:128-f80:128-n8:16:32:64-S128"
target triple = "x86_64-pc-linux-gnu"

%class.bv_rewriter_core = type { ptr, %class.bv_util, %class.obj_ref }
%class.bv_util = type { %class.bv_recognizers, ptr, ptr }
%class.bv_recognizers = type { i32 }
%class.obj_ref = type { ptr, ptr }

; Function Attrs: mustprogress nounwind uwtable
define linkonce_odr hidden noundef i32 @_ZNK14bv_recognizers7get_fidEv(ptr noundef nonnull align 4 dereferenceable(4) %0) #6 comdat align 2 {
  %2 = alloca ptr, align 8
  store ptr %0, ptr %2, align 8, !tbaa !97
  %3 = load ptr, ptr %2, align 8
  %4 = getelementptr inbounds nuw %class.bv_recognizers, ptr %3, i32 0, i32 0
  %5 = load i32, ptr %4, align 4, !tbaa !147
  ret i32 %5
}

; Function Attrs: mustprogress uwtable
define linkonce_odr hidden noundef ptr @_ZN7bv_util9mk_concatEjPKP4expr(ptr noundef nonnull align 8 dereferenceable(24) %0, i32 noundef %1, ptr noundef %2) #4 comdat align 2 {
  %4 = alloca ptr, align 8
  %5 = alloca i32, align 4
  %6 = alloca ptr, align 8
  store ptr %0, ptr %4, align 8, !tbaa !125
  store i32 %1, ptr %5, align 4, !tbaa !63
  store ptr %2, ptr %6, align 8, !tbaa !64
  %7 = load ptr, ptr %4, align 8
  %8 = getelementptr inbounds nuw %class.bv_util, ptr %7, i32 0, i32 1
  %9 = load ptr, ptr %8, align 8, !tbaa !136
  %10 = call noundef i32 @_ZNK14bv_recognizers7get_fidEv(ptr noundef nonnull align 4 dereferenceable(4) %7)
  %11 = load i32, ptr %5, align 4, !tbaa !63
  %12 = load ptr, ptr %6, align 8, !tbaa !64
  %13 = call noundef ptr @_ZN11ast_manager6mk_appEiijPKP4expr(ptr noundef nonnull align 8 dereferenceable(976) %9, i32 noundef %10, i32 noundef 37, i32 noundef %11, ptr noundef %12)
  ret ptr %13
}

; Function Attrs: mustprogress uwtable
define hidden noundef ptr @_ZN11bv_rewriter6concatEjPKP4expr(ptr noundef nonnull align 8 dereferenceable(157) %0, i32 noundef %1, ptr noundef %2) #4 align 2 {
  %4 = alloca ptr, align 8
  %5 = alloca ptr, align 8
  %6 = alloca i32, align 4
  %7 = alloca ptr, align 8
  store ptr %0, ptr %5, align 8, !tbaa !3
  store i32 %1, ptr %6, align 4, !tbaa !63
  store ptr %2, ptr %7, align 8, !tbaa !64
  %8 = load ptr, ptr %5, align 8
  %9 = load i32, ptr %6, align 4, !tbaa !63
  switch i32 %9, label %19 [
    i32 0, label %10
    i32 1, label %15
  ]

10:                                               ; preds = %3
  %11 = getelementptr inbounds nuw %class.bv_rewriter_core, ptr %8, i32 0, i32 1
  %12 = load i32, ptr %6, align 4, !tbaa !63
  %13 = load ptr, ptr %7, align 8, !tbaa !64
  %14 = call noundef ptr @_ZN7bv_util9mk_concatEjPKP4expr(ptr noundef nonnull align 8 dereferenceable(24) %11, i32 noundef %12, ptr noundef %13)
  store ptr %14, ptr %4, align 8
  br label %24

15:                                               ; preds = %3
  %16 = load ptr, ptr %7, align 8, !tbaa !64
  %17 = getelementptr inbounds ptr, ptr %16, i64 0
  %18 = load ptr, ptr %17, align 8, !tbaa !71
  store ptr %18, ptr %4, align 8
  br label %24

19:                                               ; preds = %3
  %20 = getelementptr inbounds nuw %class.bv_rewriter_core, ptr %8, i32 0, i32 1
  %21 = load i32, ptr %6, align 4, !tbaa !63
  %22 = load ptr, ptr %7, align 8, !tbaa !64
  %23 = call noundef ptr @_ZN7bv_util9mk_concatEjPKP4expr(ptr noundef nonnull align 8 dereferenceable(24) %20, i32 noundef %21, ptr noundef %22)
  store ptr %23, ptr %4, align 8
  br label %24

24:                                               ; preds = %19, %15, %10
  %25 = load ptr, ptr %4, align 8
  ret ptr %25
}