; Function Attrs: mustprogress uwtable
define hidden noundef ptr @_ZN11bv_rewriter6concatEjPKP4expr(ptr noundef nonnull readonly align 8 captures(none) dereferenceable(157) %0, i32 noundef %1, ptr noundef %2) local_unnamed_addr #3 align 2 {
  switch i32 %1, label %12 [
    i32 0, label %4
    i32 1, label %10
  ]

4:                                                ; preds = %3
  %5 = getelementptr inbounds nuw i8, ptr %0, i64 8
  %6 = getelementptr inbounds nuw i8, ptr %0, i64 16
  %7 = load ptr, ptr %6, align 8, !tbaa !74
  %8 = load i32, ptr %5, align 8, !tbaa !75
  %9 = tail call noundef ptr @_ZN11ast_manager6mk_appEiijPKP4expr(ptr noundef nonnull align 8 dereferenceable(976) %7, i32 noundef %8, i32 noundef 37, i32 noundef 0, ptr noundef %2)
  br label %18

10:                                               ; preds = %3
  %11 = load ptr, ptr %2, align 8, !tbaa !67
  br label %18

12:                                               ; preds = %3
  %13 = getelementptr inbounds nuw i8, ptr %0, i64 8
  %14 = getelementptr inbounds nuw i8, ptr %0, i64 16
  %15 = load ptr, ptr %14, align 8, !tbaa !74
  %16 = load i32, ptr %13, align 8, !tbaa !75
  %17 = tail call noundef ptr @_ZN11ast_manager6mk_appEiijPKP4expr(ptr noundef nonnull align 8 dereferenceable(976) %15, i32 noundef %16, i32 noundef 37, i32 noundef %1, ptr noundef %2)
  br label %18

18:                                               ; preds = %12, %10, %4
  %.0 = phi ptr [ %17, %12 ], [ %11, %10 ], [ %9, %4 ]
  ret ptr %.0
}